(i__main__
dropbox_state
p0
(dp1
S'app_secret'
p2
S'so10vyesp5e6ddd'
p3
sS'token_file_name'
p4
S'/samba/.dropboxToken'
p5
sS'app_key'
p6
S'kxtxe4hgv462ovp'
p7
sS'cursor'
p8
VAAELOZrO5citYCFV6s3wv2L3UymcmC8iRw-eERO_Pbulug-24upCr8fy2HTyZ89oLzyf6AF6wsKYhO-2CSKegguN0meScHd2lZmas2dxmI_78-wNMcxHDJWj95xyvdiloXQ
p9
sS'local_files'
p10
(dp11
V/Photo2.jpg
p12
(dp13
S'modified'
p14
F1459295456.2515826
sssS'remote_files'
p15
(dp16
g12
(dp17
Vrevision
p18
I448
sVbytes
p19
I50229
sVthumb_exists
p20
I01
sVrev
p21
V1c04678d862
p22
sVmodified
p23
VTue, 29 Mar 2016 23:03:54 +0000
p24
sVmime_type
p25
Vimage/jpeg
p26
sVpath
p27
V/Photo2.jpg
p28
sVphoto_info
p29
(dp30
Vlat_long
p31
NsVtime_taken
p32
NsVimage_dimensions
p33
(lp34
I540
aI540
assVis_dir
p35
I00
sVsize
p36
V49.1 KB
p37
sVroot
p38
Vapp_folder
p39
sVclient_mtime
p40
VMon, 28 Mar 2016 20:47:16 +0000
p41
sVicon
p42
Vpage_white_picture
p43
sssb.